target datalayout = "e-m:e-p270:32:32-p271:32:32-p272:64:64-i64:64-i128:128-f80:128-n8:16:32:64-S128"
target triple = "x86_64-pc-linux-gnu"

@.str.760 = private unnamed_addr constant [24 x i8] c"Pcmax,f,c < -29 dBm (0)\00", align 1
@.str.761 = private unnamed_addr constant [25 x i8] c"Pcmax,f,c >= 33 dBm (63)\00", align 1
@.str.762 = private unnamed_addr constant [34 x i8] c"%d dBm <= Pcmax,f,c < %d dBm (%d)\00", align 1

; Function Attrs: nounwind uwtable
define internal void @mac_nr_pcmax_f_c_fmt(ptr noundef %0, i32 noundef %1) #0 {
  %3 = alloca ptr, align 8
  %4 = alloca i32, align 4
  %5 = alloca i32, align 4
  store ptr %0, ptr %3, align 8
  store i32 %1, ptr %4, align 4
  %6 = load i32, ptr %4, align 4
  store i32 %6, ptr %5, align 4
  %7 = load i32, ptr %5, align 4
  %8 = icmp eq i32 %7, 0
  br i1 %8, label %9, label %12

9:                                                ; preds = %2
  %10 = load ptr, ptr %3, align 8
  %11 = call i32 (ptr, i64, ptr, ...) @snprintf(ptr noundef %10, i64 noundef 240, ptr noundef @.str.760) #9
  br label %27

12:                                               ; preds = %2
  %13 = load i32, ptr %5, align 4
  %14 = icmp eq i32 %13, 63
  br i1 %14, label %15, label %18

15:                                               ; preds = %12
  %16 = load ptr, ptr %3, align 8
  %17 = call i32 (ptr, i64, ptr, ...) @snprintf(ptr noundef %16, i64 noundef 240, ptr noundef @.str.761) #9
  br label %26

18:                                               ; preds = %12
  %19 = load ptr, ptr %3, align 8
  %20 = load i32, ptr %5, align 4
  %21 = sub i32 %20, 30
  %22 = load i32, ptr %5, align 4
  %23 = sub i32 %22, 29
  %24 = load i32, ptr %5, align 4
  %25 = call i32 (ptr, i64, ptr, ...) @snprintf(ptr noundef %19, i64 noundef 240, ptr noundef @.str.762, i32 noundef %21, i32 noundef %23, i32 noundef %24) #9
  br label %26

26:                                               ; preds = %18, %15
  br label %27

27:                                               ; preds = %26, %9
  ret void
}