; Function Attrs: nofree nounwind uwtable
define internal void @mac_nr_pcmax_f_c_fmt(ptr noundef writeonly captures(none) %0, i32 noundef %1) #2 {
  switch i32 %1, label %5 [
    i32 0, label %3
    i32 63, label %4
  ]

3:                                                ; preds = %2
  tail call void @llvm.memcpy.p0.p0.i64(ptr noundef nonnull align 1 dereferenceable(24) %0, ptr noundef nonnull align 1 dereferenceable(24) @.str.760, i64 24, i1 false)
  br label %9

4:                                                ; preds = %2
  tail call void @llvm.memcpy.p0.p0.i64(ptr noundef nonnull align 1 dereferenceable(25) %0, ptr noundef nonnull align 1 dereferenceable(25) @.str.761, i64 25, i1 false)
  br label %9

5:                                                ; preds = %2
  %6 = add i32 %1, -30
  %7 = add i32 %1, -29
  %8 = tail call i32 (ptr, i64, ptr, ...) @snprintf(ptr noundef nonnull dereferenceable(1) %0, i64 noundef 240, ptr noundef nonnull @.str.762, i32 noundef %6, i32 noundef %7, i32 noundef %1) #12
  br label %9

9:                                                ; preds = %4, %5, %3
  ret void
}